; Function Attrs: nounwind uwtable
define hidden noundef ptr @_PyPegen_expect_token(ptr noundef %0, i32 noundef %1) local_unnamed_addr #1 {
  %3 = getelementptr inbounds nuw i8, ptr %0, i64 16
  %4 = load i32, ptr %3, align 8, !tbaa !33
  %5 = getelementptr inbounds nuw i8, ptr %0, i64 20
  %6 = load i32, ptr %5, align 4, !tbaa !62
  %7 = icmp eq i32 %4, %6
  br i1 %7, label %8, label %13

8:                                                ; preds = %2
  %9 = tail call i32 @_PyPegen_fill_token(ptr noundef nonnull %0)
  %10 = icmp slt i32 %9, 0
  br i1 %10, label %11, label %._crit_edge

._crit_edge:                                      ; preds = %8
  %.pre = load i32, ptr %3, align 8, !tbaa !33
  br label %13

11:                                               ; preds = %8
  %12 = getelementptr inbounds nuw i8, ptr %0, i64 96
  store i32 1, ptr %12, align 8, !tbaa !87
  br label %23

13:                                               ; preds = %._crit_edge, %2
  %14 = phi i32 [ %.pre, %._crit_edge ], [ %4, %2 ]
  %15 = getelementptr inbounds nuw i8, ptr %0, i64 8
  %16 = load ptr, ptr %15, align 8, !tbaa !35
  %17 = sext i32 %14 to i64
  %18 = getelementptr ptr, ptr %16, i64 %17
  %19 = load ptr, ptr %18, align 8, !tbaa !36
  %20 = load i32, ptr %19, align 8, !tbaa !71
  %.not = icmp eq i32 %20, %1
  br i1 %.not, label %21, label %23

21:                                               ; preds = %13
  %22 = add i32 %14, 1
  store i32 %22, ptr %3, align 8, !tbaa !33
  br label %23

23:                                               ; preds = %21, %13, %11
  %.0 = phi ptr [ null, %11 ], [ %19, %21 ], [ null, %13 ]
  ret ptr %.0
}